; Function Attrs: nounwind uwtable
define noalias ptr @png_create_write_struct(ptr noundef %0, ptr noundef %1, ptr noundef %2, ptr noundef %3) local_unnamed_addr #0 {
  %5 = tail call noalias ptr @png_create_png_struct(ptr noundef %0, ptr noundef %1, ptr noundef %2, ptr noundef %3, ptr noundef null, ptr noundef null, ptr noundef null) #15
  %.not.i = icmp eq ptr %5, null
  br i1 %.not.i, label %png_create_write_struct_2.exit, label %6

6:                                                ; preds = %4
  %7 = getelementptr inbounds i8, ptr %5, i64 440
  %8 = getelementptr inbounds i8, ptr %5, i64 456
  store <4 x i32> <i32 8192, i32 -1, i32 8, i32 15>, ptr %7, align 8
  %9 = getelementptr inbounds i8, ptr %5, i64 480
  store i32 0, ptr %9, align 8
  %10 = getelementptr inbounds i8, ptr %5, i64 476
  store i32 8, ptr %10, align 4
  %11 = getelementptr inbounds i8, ptr %5, i64 472
  store i32 15, ptr %11, align 8
  store <4 x i32> <i32 8, i32 1, i32 -1, i32 8>, ptr %8, align 8
  tail call void @png_set_write_fn(ptr noundef nonnull %5, ptr noundef null, ptr noundef null, ptr noundef null) #15
  br label %png_create_write_struct_2.exit

png_create_write_struct_2.exit:                   ; preds = %4, %6
  ret ptr %5
}